target datalayout = "e-m:e-p270:32:32-p271:32:32-p272:64:64-i64:64-i128:128-f80:128-n8:16:32:64-S128"
target triple = "x86_64-pc-linux-gnu"

; Function Attrs: mustprogress nounwind uwtable
define noundef i32 @_ZN10open_spiel9dou_dizhu10CardToRankEi(i32 noundef %0) #4 {
  %2 = alloca i32, align 4
  %3 = alloca i32, align 4
  store i32 %0, ptr %3, align 4
  %4 = load i32, ptr %3, align 4
  %5 = icmp eq i32 %4, 52
  br i1 %5, label %9, label %6

6:                                                ; preds = %1
  %7 = load i32, ptr %3, align 4
  %8 = icmp eq i32 %7, 53
  br i1 %8, label %9, label %13

9:                                                ; preds = %6, %1
  %10 = load i32, ptr %3, align 4
  %11 = sub nsw i32 %10, 54
  %12 = add nsw i32 %11, 15
  store i32 %12, ptr %2, align 4
  br label %16

13:                                               ; preds = %6
  %14 = load i32, ptr %3, align 4
  %15 = srem i32 %14, 13
  store i32 %15, ptr %2, align 4
  br label %16

16:                                               ; preds = %13, %9
  %17 = load i32, ptr %2, align 4
  ret i32 %17
}