; Function Attrs: mustprogress nofree norecurse nosync nounwind willreturn memory(none) uwtable
define noundef range(i32 -2147483633, 2147483609) i32 @_ZN10open_spiel9dou_dizhu10CardToRankEi(i32 noundef %0) local_unnamed_addr #3 {
  %2 = and i32 %0, -2
  %or.cond = icmp eq i32 %2, 52
  br i1 %or.cond, label %3, label %5

3:                                                ; preds = %1
  %4 = add nsw i32 %0, -39
  br label %7

5:                                                ; preds = %1
  %6 = srem i32 %0, 13
  br label %7

7:                                                ; preds = %5, %3
  %.0 = phi i32 [ %4, %3 ], [ %6, %5 ]
  ret i32 %.0
}